target datalayout = "e-m:e-p270:32:32-p271:32:32-p272:64:64-i64:64-i128:128-f80:128-n8:16:32:64-S128"
target triple = "x86_64-pc-linux-gnu"

%"class.glslang::TQualifier" = type <{ ptr, i64, i8, [3 x i8], i32, i32, i64, i64, i8, i8, i8, i8, i8, [3 x i8], i32, i8, i8, i8, i8, i32, ptr, i8, i8, [6 x i8] }>

; Function Attrs: mustprogress nounwind uwtable
define linkonce_odr noundef zeroext i1 @_ZNK7glslang10TQualifier23hasBufferReferenceAlignEv(ptr noundef nonnull align 8 dereferenceable(80) %0) #0 comdat align 2 {
  %2 = alloca ptr, align 8
  store ptr %0, ptr %2, align 8
  %3 = load ptr, ptr %2, align 8
  %4 = getelementptr inbounds %"class.glslang::TQualifier", ptr %3, i32 0, i32 7
  %5 = load i64, ptr %4, align 4
  %6 = lshr i64 %5, 51
  %7 = and i64 %6, 63
  %8 = trunc i64 %7 to i32
  %9 = icmp ne i32 %8, 63
  ret i1 %9
}

; Function Attrs: mustprogress nounwind uwtable
define linkonce_odr noundef i32 @_ZNK7glslang5TType27getBufferReferenceAlignmentEv(ptr noundef nonnull align 8 dereferenceable(152) %0) #0 comdat align 2 {
  %2 = alloca i32, align 4
  %3 = alloca ptr, align 8
  store ptr %0, ptr %3, align 8
  %4 = load ptr, ptr %3, align 8
  %5 = load ptr, ptr %4, align 8
  %6 = getelementptr inbounds ptr, ptr %5, i64 7
  %7 = load ptr, ptr %6, align 8
  %8 = call noundef i32 %7(ptr noundef nonnull align 8 dereferenceable(152) %4)
  %9 = icmp eq i32 %8, 18
  br i1 %9, label %10, label %38

10:                                               ; preds = %1
  %11 = load ptr, ptr %4, align 8
  %12 = getelementptr inbounds ptr, ptr %11, i64 21
  %13 = load ptr, ptr %12, align 8
  %14 = call noundef ptr %13(ptr noundef nonnull align 8 dereferenceable(152) %4)
  %15 = load ptr, ptr %14, align 8
  %16 = getelementptr inbounds ptr, ptr %15, i64 10
  %17 = load ptr, ptr %16, align 8
  %18 = call noundef nonnull align 8 dereferenceable(80) ptr %17(ptr noundef nonnull align 8 dereferenceable(152) %14)
  %19 = call noundef zeroext i1 @_ZNK7glslang10TQualifier23hasBufferReferenceAlignEv(ptr noundef nonnull align 8 dereferenceable(80) %18)
  br i1 %19, label %20, label %35

20:                                               ; preds = %10
  %21 = load ptr, ptr %4, align 8
  %22 = getelementptr inbounds ptr, ptr %21, i64 21
  %23 = load ptr, ptr %22, align 8
  %24 = call noundef ptr %23(ptr noundef nonnull align 8 dereferenceable(152) %4)
  %25 = load ptr, ptr %24, align 8
  %26 = getelementptr inbounds ptr, ptr %25, i64 10
  %27 = load ptr, ptr %26, align 8
  %28 = call noundef nonnull align 8 dereferenceable(80) ptr %27(ptr noundef nonnull align 8 dereferenceable(152) %24)
  %29 = getelementptr inbounds %"class.glslang::TQualifier", ptr %28, i32 0, i32 7
  %30 = load i64, ptr %29, align 4
  %31 = lshr i64 %30, 51
  %32 = and i64 %31, 63
  %33 = trunc i64 %32 to i32
  %34 = shl i32 1, %33
  br label %36

35:                                               ; preds = %10
  br label %36

36:                                               ; preds = %35, %20
  %37 = phi i32 [ %34, %20 ], [ 16, %35 ]
  store i32 %37, ptr %2, align 4
  br label %39

38:                                               ; preds = %1
  store i32 0, ptr %2, align 4
  br label %39

39:                                               ; preds = %38, %36
  %40 = load i32, ptr %2, align 4
  ret i32 %40
}

; Function Attrs: mustprogress nounwind uwtable
define noundef i32 @_ZN7glslang13TIntermediate30computeBufferReferenceTypeSizeERKNS_5TTypeE(ptr noundef nonnull align 8 dereferenceable(152) %0) #0 align 2 {
  %2 = alloca ptr, align 8
  %3 = alloca i32, align 4
  %4 = alloca i32, align 4
  store ptr %0, ptr %2, align 8
  %5 = load ptr, ptr %2, align 8
  %6 = load ptr, ptr %5, align 8
  %7 = getelementptr inbounds ptr, ptr %6, i64 21
  %8 = load ptr, ptr %7, align 8
  %9 = call noundef ptr %8(ptr noundef nonnull align 8 dereferenceable(152) %5)
  %10 = call noundef i32 @_ZN7glslang13TIntermediate12getBlockSizeERKNS_5TTypeE(ptr noundef nonnull align 8 dereferenceable(152) %9)
  store i32 %10, ptr %3, align 4
  %11 = load ptr, ptr %2, align 8
  %12 = call noundef i32 @_ZNK7glslang5TType27getBufferReferenceAlignmentEv(ptr noundef nonnull align 8 dereferenceable(152) %11)
  store i32 %12, ptr %4, align 4
  %13 = load i32, ptr %4, align 4
  %14 = icmp ne i32 %13, 0
  br i1 %14, label %15, label %24

15:                                               ; preds = %1
  %16 = load i32, ptr %3, align 4
  %17 = load i32, ptr %4, align 4
  %18 = add nsw i32 %16, %17
  %19 = sub nsw i32 %18, 1
  %20 = load i32, ptr %4, align 4
  %21 = sub nsw i32 %20, 1
  %22 = xor i32 %21, -1
  %23 = and i32 %19, %22
  store i32 %23, ptr %3, align 4
  br label %24

24:                                               ; preds = %15, %1
  %25 = load i32, ptr %3, align 4
  ret i32 %25
}