; Function Attrs: mustprogress nounwind uwtable
define noundef i32 @_ZN7glslang13TIntermediate30computeBufferReferenceTypeSizeERKNS_5TTypeE(ptr noundef nonnull align 8 dereferenceable(152) %0) local_unnamed_addr #0 align 2 {
  %2 = load ptr, ptr %0, align 8
  %3 = getelementptr inbounds i8, ptr %2, i64 168
  %4 = load ptr, ptr %3, align 8
  %5 = tail call noundef ptr %4(ptr noundef nonnull align 8 dereferenceable(152) %0) #18
  %6 = tail call noundef i32 @_ZN7glslang13TIntermediate12getBlockSizeERKNS_5TTypeE(ptr noundef nonnull align 8 dereferenceable(152) %5)
  %7 = load ptr, ptr %0, align 8
  %8 = getelementptr inbounds i8, ptr %7, i64 56
  %9 = load ptr, ptr %8, align 8
  %10 = tail call noundef i32 %9(ptr noundef nonnull align 8 dereferenceable(152) %0) #18
  %11 = icmp eq i32 %10, 18
  br i1 %11, label %12, label %43

12:                                               ; preds = %1
  %13 = load ptr, ptr %0, align 8
  %14 = getelementptr inbounds i8, ptr %13, i64 168
  %15 = load ptr, ptr %14, align 8
  %16 = tail call noundef ptr %15(ptr noundef nonnull align 8 dereferenceable(152) %0) #18
  %17 = load ptr, ptr %16, align 8
  %18 = getelementptr inbounds i8, ptr %17, i64 80
  %19 = load ptr, ptr %18, align 8
  %20 = tail call noundef nonnull align 8 dereferenceable(80) ptr %19(ptr noundef nonnull align 8 dereferenceable(152) %16) #18
  %21 = getelementptr inbounds i8, ptr %20, i64 36
  %22 = load i64, ptr %21, align 4
  %23 = and i64 %22, 141863388262170624
  %.not.i = icmp eq i64 %23, 141863388262170624
  br i1 %.not.i, label %_ZNK7glslang5TType27getBufferReferenceAlignmentEv.exit.thread, label %24

24:                                               ; preds = %12
  %25 = load ptr, ptr %0, align 8
  %26 = getelementptr inbounds i8, ptr %25, i64 168
  %27 = load ptr, ptr %26, align 8
  %28 = tail call noundef ptr %27(ptr noundef nonnull align 8 dereferenceable(152) %0) #18
  %29 = load ptr, ptr %28, align 8
  %30 = getelementptr inbounds i8, ptr %29, i64 80
  %31 = load ptr, ptr %30, align 8
  %32 = tail call noundef nonnull align 8 dereferenceable(80) ptr %31(ptr noundef nonnull align 8 dereferenceable(152) %28) #18
  %33 = getelementptr inbounds i8, ptr %32, i64 36
  %34 = load i64, ptr %33, align 4
  %35 = lshr i64 %34, 51
  %36 = trunc nuw nsw i64 %35 to i32
  %37 = and i32 %36, 63
  %38 = shl nuw i32 1, %37
  br label %_ZNK7glslang5TType27getBufferReferenceAlignmentEv.exit.thread

_ZNK7glslang5TType27getBufferReferenceAlignmentEv.exit.thread: ; preds = %24, %12
  %.0.i.ph = phi i32 [ 16, %12 ], [ %38, %24 ]
  %39 = add i32 %6, -1
  %40 = add i32 %39, %.0.i.ph
  %41 = sub i32 0, %.0.i.ph
  %42 = and i32 %40, %41
  br label %43

43:                                               ; preds = %1, %_ZNK7glslang5TType27getBufferReferenceAlignmentEv.exit.thread
  %44 = phi i32 [ %42, %_ZNK7glslang5TType27getBufferReferenceAlignmentEv.exit.thread ], [ %6, %1 ]
  ret i32 %44
}